; Function Attrs: nofree norecurse nosync nounwind memory(readwrite, inaccessiblemem: none) uwtable
define internal void @pass2_no_dither(ptr nocapture noundef readonly %0, ptr nocapture noundef readonly %1, ptr nocapture noundef readonly %2, i32 noundef %3) #2 {
  %5 = getelementptr inbounds i8, ptr %0, i64 624
  %6 = load ptr, ptr %5, align 8
  %7 = getelementptr inbounds i8, ptr %6, i64 48
  %8 = load ptr, ptr %7, align 8
  %9 = getelementptr inbounds i8, ptr %0, i64 136
  %10 = load i32, ptr %9, align 8
  %11 = icmp slt i32 %3, 1
  %.not29 = icmp eq i32 %10, 0
  %or.cond = select i1 %11, i1 true, i1 %.not29
  br i1 %or.cond, label %._crit_edge36, label %.lr.ph.preheader

.lr.ph.preheader:                                 ; preds = %4
  %wide.trip.count = zext nneg i32 %3 to i64
  br label %.lr.ph

.lr.ph:                                           ; preds = %.lr.ph.preheader, %._crit_edge
  %indvars.iv = phi i64 [ 0, %.lr.ph.preheader ], [ %indvars.iv.next, %._crit_edge ]
  %12 = getelementptr inbounds ptr, ptr %1, i64 %indvars.iv
  %13 = load ptr, ptr %12, align 8
  %14 = getelementptr inbounds ptr, ptr %2, i64 %indvars.iv
  %15 = load ptr, ptr %14, align 8
  br label %16

16:                                               ; preds = %.lr.ph, %38
  %.032 = phi ptr [ %13, %.lr.ph ], [ %23, %38 ]
  %.02631 = phi i32 [ %10, %.lr.ph ], [ %43, %38 ]
  %.02830 = phi ptr [ %15, %.lr.ph ], [ %42, %38 ]
  %17 = getelementptr inbounds i8, ptr %.032, i64 1
  %18 = load i8, ptr %.032, align 1
  %19 = lshr i8 %18, 3
  %20 = getelementptr inbounds i8, ptr %.032, i64 2
  %21 = load i8, ptr %17, align 1
  %22 = lshr i8 %21, 2
  %23 = getelementptr inbounds i8, ptr %.032, i64 3
  %24 = load i8, ptr %20, align 1
  %25 = lshr i8 %24, 3
  %26 = zext nneg i8 %19 to i64
  %27 = getelementptr inbounds ptr, ptr %8, i64 %26
  %28 = load ptr, ptr %27, align 8
  %29 = zext nneg i8 %22 to i64
  %30 = zext nneg i8 %25 to i64
  %31 = getelementptr inbounds [32 x i16], ptr %28, i64 %29, i64 %30
  %32 = load i16, ptr %31, align 2
  %33 = icmp eq i16 %32, 0
  br i1 %33, label %34, label %38

34:                                               ; preds = %16
  %35 = zext nneg i8 %25 to i32
  %36 = zext nneg i8 %22 to i32
  %37 = zext nneg i8 %19 to i32
  tail call fastcc void @fill_inverse_cmap(ptr noundef %0, i32 noundef %37, i32 noundef %36, i32 noundef %35)
  %.pre = load i16, ptr %31, align 2
  br label %38

38:                                               ; preds = %34, %16
  %39 = phi i16 [ %.pre, %34 ], [ %32, %16 ]
  %40 = trunc i16 %39 to i8
  %41 = add i8 %40, -1
  %42 = getelementptr inbounds i8, ptr %.02830, i64 1
  store i8 %41, ptr %.02830, align 1
  %43 = add i32 %.02631, -1
  %.not = icmp eq i32 %43, 0
  br i1 %.not, label %._crit_edge, label %16, !llvm.loop !23

._crit_edge:                                      ; preds = %38
  %indvars.iv.next = add nuw nsw i64 %indvars.iv, 1
  %exitcond.not = icmp eq i64 %indvars.iv.next, %wide.trip.count
  br i1 %exitcond.not, label %._crit_edge36, label %.lr.ph, !llvm.loop !24

._crit_edge36:                                    ; preds = %._crit_edge, %4
  ret void
}